; Function Attrs: nounwind uwtable
define ptr @l_Std_Time_Internal_UnitVal_instNeg___rarg___boxed(ptr noundef %0) #1 {
  %2 = ptrtoint ptr %0 to i64
  %3 = and i64 %2, 1
  %.not.i.i = icmp eq i64 %3, 0
  br i1 %.not.i.i, label %17, label %4, !prof !15

4:                                                ; preds = %1
  %5 = shl i64 %2, 31
  %6 = ashr i64 %5, 32
  %7 = sub nsw i64 0, %6
  %8 = add nsw i64 %6, 2147483647
  %9 = icmp ult i64 %8, 4294967296
  br i1 %9, label %10, label %15, !prof !11

10:                                               ; preds = %4
  %11 = shl nsw i64 %7, 1
  %12 = and i64 %11, 8589934590
  %13 = or disjoint i64 %12, 1
  %14 = inttoptr i64 %13 to ptr
  br label %lean_dec.exit

15:                                               ; preds = %4
  %16 = tail call ptr @lean_big_int64_to_int(i64 noundef range(i64 -4611686016279904256, 4611686018427387905) %7) #5
  br label %lean_dec.exit

17:                                               ; preds = %1
  %18 = tail call ptr @lean_int_big_neg(ptr noundef %0) #5
  %19 = load i32, ptr %0, align 4, !tbaa !8
  %20 = icmp sgt i32 %19, 1
  br i1 %20, label %21, label %23, !prof !11

21:                                               ; preds = %17
  %22 = add nsw i32 %19, -1
  store i32 %22, ptr %0, align 4, !tbaa !8
  br label %lean_dec.exit

23:                                               ; preds = %17
  %.not.i = icmp eq i32 %19, 0
  br i1 %.not.i, label %lean_dec.exit, label %24

24:                                               ; preds = %23
  tail call void @lean_dec_ref_cold(ptr noundef nonnull %0) #5
  br label %lean_dec.exit

lean_dec.exit:                                    ; preds = %15, %10, %24, %23, %21
  %.0.i.i4 = phi ptr [ %18, %21 ], [ %18, %23 ], [ %18, %24 ], [ %16, %15 ], [ %14, %10 ]
  ret ptr %.0.i.i4
}